target datalayout = "e-m:e-p270:32:32-p271:32:32-p272:64:64-i64:64-i128:128-f80:128-n8:16:32:64-S128"
target triple = "x86_64-pc-linux-gnu"

%struct._MBCSToUFallback = type { i32, i32 }

; Function Attrs: mustprogress nounwind uwtable
define i32 @ucm_findFallback(ptr noundef %0, i32 noundef %1, i32 noundef %2) #6 {
  %4 = alloca i32, align 4
  %5 = alloca ptr, align 8
  %6 = alloca i32, align 4
  %7 = alloca i32, align 4
  %8 = alloca i32, align 4
  %9 = alloca i32, align 4
  store ptr %0, ptr %5, align 8, !tbaa !47
  store i32 %1, ptr %6, align 4, !tbaa !17
  store i32 %2, ptr %7, align 4, !tbaa !17
  call void @llvm.lifetime.start.p0(i64 4, ptr %8) #10
  %10 = load i32, ptr %6, align 4, !tbaa !17
  %11 = icmp eq i32 %10, 0
  br i1 %11, label %12, label %13

12:                                               ; preds = %3
  store i32 -1, ptr %4, align 4
  store i32 1, ptr %9, align 4
  br label %34

13:                                               ; preds = %3
  store i32 0, ptr %8, align 4, !tbaa !17
  br label %14

14:                                               ; preds = %30, %13
  %15 = load i32, ptr %8, align 4, !tbaa !17
  %16 = load i32, ptr %6, align 4, !tbaa !17
  %17 = icmp slt i32 %15, %16
  br i1 %17, label %18, label %33

18:                                               ; preds = %14
  %19 = load i32, ptr %7, align 4, !tbaa !17
  %20 = load ptr, ptr %5, align 8, !tbaa !47
  %21 = load i32, ptr %8, align 4, !tbaa !17
  %22 = sext i32 %21 to i64
  %23 = getelementptr inbounds %struct._MBCSToUFallback, ptr %20, i64 %22
  %24 = getelementptr inbounds nuw %struct._MBCSToUFallback, ptr %23, i32 0, i32 0
  %25 = load i32, ptr %24, align 4, !tbaa !48
  %26 = icmp eq i32 %19, %25
  br i1 %26, label %27, label %29

27:                                               ; preds = %18
  %28 = load i32, ptr %8, align 4, !tbaa !17
  store i32 %28, ptr %4, align 4
  store i32 1, ptr %9, align 4
  br label %34

29:                                               ; preds = %18
  br label %30

30:                                               ; preds = %29
  %31 = load i32, ptr %8, align 4, !tbaa !17
  %32 = add nsw i32 %31, 1
  store i32 %32, ptr %8, align 4, !tbaa !17
  br label %14, !llvm.loop !50

33:                                               ; preds = %14
  store i32 -1, ptr %4, align 4
  store i32 1, ptr %9, align 4
  br label %34

34:                                               ; preds = %33, %27, %12
  call void @llvm.lifetime.end.p0(i64 4, ptr %8) #10
  %35 = load i32, ptr %4, align 4
  ret i32 %35
}