; Function Attrs: mustprogress nofree norecurse nosync nounwind willreturn memory(argmem: read) uwtable
define range(i32 -2147483648, 2147483647) i32 @ucm_findFallback(ptr noundef readonly captures(none) %0, i32 noundef %1, i32 noundef %2) local_unnamed_addr #8 {
  %4 = icmp sgt i32 %1, 0
  br i1 %4, label %.lr.ph.preheader, label %.loopexit

.lr.ph.preheader:                                 ; preds = %3
  %wide.trip.count = zext nneg i32 %1 to i64
  br label %.lr.ph

.lr.ph:                                           ; preds = %.lr.ph.preheader, %8
  %indvars.iv = phi i64 [ 0, %.lr.ph.preheader ], [ %indvars.iv.next, %8 ]
  %5 = getelementptr inbounds nuw %struct._MBCSToUFallback, ptr %0, i64 %indvars.iv
  %6 = load i32, ptr %5, align 4, !tbaa !39
  %7 = icmp eq i32 %2, %6
  br i1 %7, label %.loopexit.loopexit.split.loop.exit14, label %8

8:                                                ; preds = %.lr.ph
  %indvars.iv.next = add nuw nsw i64 %indvars.iv, 1
  %exitcond.not = icmp eq i64 %indvars.iv.next, %wide.trip.count
  br i1 %exitcond.not, label %.loopexit, label %.lr.ph, !llvm.loop !41

.loopexit.loopexit.split.loop.exit14:             ; preds = %.lr.ph
  %9 = trunc nuw nsw i64 %indvars.iv to i32
  br label %.loopexit

.loopexit:                                        ; preds = %8, %.loopexit.loopexit.split.loop.exit14, %3
  %.08 = phi i32 [ -1, %3 ], [ %9, %.loopexit.loopexit.split.loop.exit14 ], [ -1, %8 ]
  ret i32 %.08
}